target datalayout = "e-m:e-p270:32:32-p271:32:32-p272:64:64-i64:64-i128:128-f80:128-n8:16:32:64-S128"
target triple = "x86_64-pc-linux-gnu"

%struct._rtp_dyn_payload_t = type { ptr, i64 }
%struct.encoding_name_and_rate_t = type { ptr, i32, i32, ptr }

@.str.2 = private unnamed_addr constant [8 x i8] c"Unknown\00", align 1

; Function Attrs: null_pointer_is_valid sspstrong uwtable
define internal void @rtp_dyn_payload_add_fmtp_int(ptr noundef %0, ptr noundef %1, ptr noundef %2) #1 {
  %4 = alloca ptr, align 8
  %5 = alloca ptr, align 8
  %6 = alloca ptr, align 8
  %7 = alloca ptr, align 8
  %8 = alloca ptr, align 8
  %9 = alloca ptr, align 8
  store ptr %0, ptr %4, align 8
  store ptr %1, ptr %5, align 8
  store ptr %2, ptr %6, align 8
  call void @llvm.lifetime.start.p0(i64 8, ptr %7) #14
  %10 = load ptr, ptr %6, align 8
  store ptr %10, ptr %7, align 8
  call void @llvm.lifetime.start.p0(i64 8, ptr %8) #14
  %11 = load ptr, ptr %4, align 8
  store ptr %11, ptr %8, align 8
  call void @llvm.lifetime.start.p0(i64 8, ptr %9) #14
  %12 = load ptr, ptr %5, align 8
  store ptr %12, ptr %9, align 8
  %13 = load ptr, ptr %7, align 8
  %14 = call ptr @wmem_file_scope()
  %15 = load ptr, ptr %8, align 8
  %16 = call noalias ptr @wmem_strdup(ptr noundef %14, ptr noundef %15)
  %17 = call ptr @wmem_file_scope()
  %18 = load ptr, ptr %9, align 8
  %19 = call noalias ptr @wmem_strdup(ptr noundef %17, ptr noundef %18)
  %20 = call ptr @wmem_map_insert(ptr noundef %13, ptr noundef %16, ptr noundef %19)
  call void @llvm.lifetime.end.p0(i64 8, ptr %9) #14
  call void @llvm.lifetime.end.p0(i64 8, ptr %8) #14
  call void @llvm.lifetime.end.p0(i64 8, ptr %7) #14
  ret void
}

; Function Attrs: null_pointer_is_valid sspstrong uwtable
define void @rtp_dyn_payload_insert(ptr noundef %0, i32 noundef %1, ptr noundef %2, i32 noundef %3, i32 noundef %4) #1 {
  %6 = alloca ptr, align 8
  %7 = alloca i32, align 4
  %8 = alloca ptr, align 8
  %9 = alloca i32, align 4
  %10 = alloca i32, align 4
  store ptr %0, ptr %6, align 8
  store i32 %1, ptr %7, align 4
  store ptr %2, ptr %8, align 8
  store i32 %3, ptr %9, align 4
  store i32 %4, ptr %10, align 4
  %11 = load ptr, ptr %6, align 8
  %12 = load i32, ptr %7, align 4
  %13 = load ptr, ptr %8, align 8
  %14 = load i32, ptr %9, align 4
  %15 = load i32, ptr %10, align 4
  call void @rtp_dyn_payload_insert_full(ptr noundef %11, i32 noundef %12, ptr noundef %13, i32 noundef %14, i32 noundef %15, ptr noundef null)
  ret void
}

; Function Attrs: null_pointer_is_valid sspstrong uwtable
define void @rtp_dyn_payload_add_fmtp(ptr noundef %0, i32 noundef %1, ptr noundef %2, ptr noundef %3) #1 {
  %5 = alloca ptr, align 8
  %6 = alloca i32, align 4
  %7 = alloca ptr, align 8
  %8 = alloca ptr, align 8
  %9 = alloca ptr, align 8
  store ptr %0, ptr %5, align 8
  store i32 %1, ptr %6, align 4
  store ptr %2, ptr %7, align 8
  store ptr %3, ptr %8, align 8
  %10 = load ptr, ptr %5, align 8
  %11 = icmp ne ptr %10, null
  br i1 %11, label %12, label %43

12:                                               ; preds = %4
  %13 = load ptr, ptr %5, align 8
  %14 = getelementptr inbounds nuw %struct._rtp_dyn_payload_t, ptr %13, i32 0, i32 0
  %15 = load ptr, ptr %14, align 8
  %16 = icmp ne ptr %15, null
  br i1 %16, label %17, label %43

17:                                               ; preds = %12
  call void @llvm.lifetime.start.p0(i64 8, ptr %9) #14
  %18 = load ptr, ptr %5, align 8
  %19 = getelementptr inbounds nuw %struct._rtp_dyn_payload_t, ptr %18, i32 0, i32 0
  %20 = load ptr, ptr %19, align 8
  %21 = load i32, ptr %6, align 4
  %22 = zext i32 %21 to i64
  %23 = inttoptr i64 %22 to ptr
  %24 = call ptr @g_hash_table_lookup(ptr noundef %20, ptr noundef %23)
  store ptr %24, ptr %9, align 8
  %25 = load ptr, ptr %9, align 8
  %26 = icmp ne ptr %25, null
  br i1 %26, label %37, label %27

27:                                               ; preds = %17
  %28 = load ptr, ptr %5, align 8
  %29 = load i32, ptr %6, align 4
  call void @rtp_dyn_payload_insert(ptr noundef %28, i32 noundef %29, ptr noundef @.str.2, i32 noundef 0, i32 noundef 1)
  %30 = load ptr, ptr %5, align 8
  %31 = getelementptr inbounds nuw %struct._rtp_dyn_payload_t, ptr %30, i32 0, i32 0
  %32 = load ptr, ptr %31, align 8
  %33 = load i32, ptr %6, align 4
  %34 = zext i32 %33 to i64
  %35 = inttoptr i64 %34 to ptr
  %36 = call ptr @g_hash_table_lookup(ptr noundef %32, ptr noundef %35)
  store ptr %36, ptr %9, align 8
  br label %37

37:                                               ; preds = %27, %17
  %38 = load ptr, ptr %7, align 8
  %39 = load ptr, ptr %8, align 8
  %40 = load ptr, ptr %9, align 8
  %41 = getelementptr inbounds nuw %struct.encoding_name_and_rate_t, ptr %40, i32 0, i32 3
  %42 = load ptr, ptr %41, align 8
  call void @rtp_dyn_payload_add_fmtp_int(ptr noundef %38, ptr noundef %39, ptr noundef %42)
  call void @llvm.lifetime.end.p0(i64 8, ptr %9) #14
  br label %43

43:                                               ; preds = %37, %12, %4
  ret void
}