; Function Attrs: null_pointer_is_valid sspstrong uwtable
define void @rtp_dyn_payload_add_fmtp(ptr noundef captures(address_is_null) %0, i32 noundef %1, ptr noundef %2, ptr noundef %3) local_unnamed_addr #1 {
  %.not = icmp eq ptr %0, null
  br i1 %.not, label %22, label %5

5:                                                ; preds = %4
  %6 = load ptr, ptr %0, align 8
  %.not14 = icmp eq ptr %6, null
  br i1 %.not14, label %22, label %7

7:                                                ; preds = %5
  %8 = zext i32 %1 to i64
  %9 = inttoptr i64 %8 to ptr
  %10 = tail call ptr @g_hash_table_lookup(ptr noundef nonnull %6, ptr noundef %9)
  %.not15 = icmp eq ptr %10, null
  br i1 %.not15, label %11, label %14

11:                                               ; preds = %7
  tail call void @rtp_dyn_payload_insert_full(ptr noundef nonnull %0, i32 noundef %1, ptr noundef nonnull @.str.2, i32 noundef 0, i32 noundef 1, ptr noundef null)
  %12 = load ptr, ptr %0, align 8
  %13 = tail call ptr @g_hash_table_lookup(ptr noundef %12, ptr noundef %9)
  br label %14

14:                                               ; preds = %11, %7
  %.0 = phi ptr [ %10, %7 ], [ %13, %11 ]
  %15 = getelementptr inbounds nuw i8, ptr %.0, i64 16
  %16 = load ptr, ptr %15, align 8
  %17 = tail call ptr @wmem_file_scope()
  %18 = tail call noalias ptr @wmem_strdup(ptr noundef %17, ptr noundef %2)
  %19 = tail call ptr @wmem_file_scope()
  %20 = tail call noalias ptr @wmem_strdup(ptr noundef %19, ptr noundef %3)
  %21 = tail call ptr @wmem_map_insert(ptr noundef %16, ptr noundef %18, ptr noundef %20)
  br label %22

22:                                               ; preds = %14, %5, %4
  ret void
}